target datalayout = "e-m:e-p270:32:32-p271:32:32-p272:64:64-i64:64-i128:128-f80:128-n8:16:32:64-S128"
target triple = "x86_64-pc-linux-gnu"

%"class.Json::Value" = type { %"union.Json::Value::ValueHolder", %struct.anon, %"class.Json::Value::Comments", i64, i64 }
%"union.Json::Value::ValueHolder" = type { i64 }
%struct.anon = type { i16, [2 x i8] }
%"class.Json::Value::Comments" = type { %"class.std::unique_ptr" }
%"class.std::unique_ptr" = type { %"struct.std::__uniq_ptr_data" }
%"struct.std::__uniq_ptr_data" = type { %"class.std::__uniq_ptr_impl" }
%"class.std::__uniq_ptr_impl" = type { %"class.std::tuple" }
%"class.std::tuple" = type { %"struct.std::_Tuple_impl" }
%"struct.std::_Tuple_impl" = type { %"struct.std::_Head_base.2" }
%"struct.std::_Head_base.2" = type { ptr }
%"class.Eigen::PlainObjectBase.174" = type { %"class.Eigen::DenseStorage.181" }
%"class.Eigen::DenseStorage.181" = type { %"struct.Eigen::internal::plain_array.182" }
%"struct.Eigen::internal::plain_array.182" = type { [36 x double] }

; Function Attrs: mustprogress nounwind ssp uwtable
define linkonce_odr noundef ptr @_ZNK5Eigen12DenseStorageIdLi36ELi6ELi6ELi0EE4dataEv(ptr noundef nonnull align 16 dereferenceable(288) %0) #0 comdat align 2 {
  %2 = alloca ptr, align 8
  store ptr %0, ptr %2, align 8, !tbaa !834
  %3 = load ptr, ptr %2, align 8
  %4 = getelementptr inbounds nuw %"class.Eigen::DenseStorage.181", ptr %3, i32 0, i32 0
  %5 = getelementptr inbounds nuw %"struct.Eigen::internal::plain_array.182", ptr %4, i32 0, i32 0
  %6 = getelementptr inbounds [36 x double], ptr %5, i64 0, i64 0
  ret ptr %6
}

; Function Attrs: inlinehint mustprogress ssp uwtable
define linkonce_odr noundef nonnull align 8 dereferenceable(8) ptr @_ZNK5Eigen15PlainObjectBaseINS_6MatrixIdLi6ELi6ELi0ELi6ELi6EEEE8coeffRefEl(ptr noundef nonnull align 16 dereferenceable(288) %0, i64 noundef %1) #9 comdat align 2 {
  %3 = alloca ptr, align 8
  %4 = alloca i64, align 8
  store ptr %0, ptr %3, align 8, !tbaa !832
  store i64 %1, ptr %4, align 8, !tbaa !47
  %5 = load ptr, ptr %3, align 8
  %6 = getelementptr inbounds nuw %"class.Eigen::PlainObjectBase.174", ptr %5, i32 0, i32 0
  %7 = call noundef ptr @_ZNK5Eigen12DenseStorageIdLi36ELi6ELi6ELi0EE4dataEv(ptr noundef nonnull align 16 dereferenceable(288) %6)
  %8 = load i64, ptr %4, align 8, !tbaa !47
  %9 = getelementptr inbounds double, ptr %7, i64 %8
  ret ptr %9
}

; Function Attrs: mustprogress ssp uwtable
define noundef zeroext i1 @_ZN6open3d7utility16IJsonConvertible24EigenMatrix6dToJsonArrayERKN5Eigen6MatrixIdLi6ELi6ELi0ELi6ELi6EEERN4Json5ValueE(ptr noundef nonnull align 16 dereferenceable(288) %0, ptr noundef nonnull align 8 dereferenceable(40) %1) #1 align 2 personality ptr @__gxx_personality_v0 {
  %3 = alloca ptr, align 8
  %4 = alloca ptr, align 8
  %5 = alloca i32, align 4
  %6 = alloca %"class.Json::Value", align 8
  %7 = alloca ptr, align 8
  %8 = alloca i32, align 4
  store ptr %0, ptr %3, align 8, !tbaa !829
  store ptr %1, ptr %4, align 8, !tbaa !759
  %9 = load ptr, ptr %4, align 8, !tbaa !759
  call void @_ZN4Json5Value5clearEv(ptr noundef nonnull align 8 dereferenceable(40) %9)
  call void @llvm.lifetime.start.p0(i64 4, ptr %5) #27
  store i32 0, ptr %5, align 4, !tbaa !35
  br label %10

10:                                               ; preds = %23, %2
  %11 = load i32, ptr %5, align 4, !tbaa !35
  %12 = icmp slt i32 %11, 36
  br i1 %12, label %14, label %13

13:                                               ; preds = %10
  call void @llvm.lifetime.end.p0(i64 4, ptr %5) #27
  br label %30

14:                                               ; preds = %10
  %15 = load ptr, ptr %4, align 8, !tbaa !759
  call void @llvm.lifetime.start.p0(i64 40, ptr %6) #27
  %16 = load ptr, ptr %3, align 8, !tbaa !829
  %17 = load i32, ptr %5, align 4, !tbaa !35
  %18 = sext i32 %17 to i64
  %19 = call noundef nonnull align 8 dereferenceable(8) ptr @_ZNK5Eigen15PlainObjectBaseINS_6MatrixIdLi6ELi6ELi0ELi6ELi6EEEE8coeffRefEl(ptr noundef nonnull align 16 dereferenceable(288) %16, i64 noundef %18)
  %20 = load double, ptr %19, align 8, !tbaa !136
  call void @_ZN4Json5ValueC1Ed(ptr noundef nonnull align 8 dereferenceable(40) %6, double noundef %20)
  %21 = invoke noundef nonnull align 8 dereferenceable(40) ptr @_ZN4Json5Value6appendEOS0_(ptr noundef nonnull align 8 dereferenceable(40) %15, ptr noundef nonnull align 8 dereferenceable(40) %6)
          to label %22 unwind label %26

22:                                               ; preds = %14
  call void @_ZN4Json5ValueD1Ev(ptr noundef nonnull align 8 dereferenceable(40) %6) #27
  call void @llvm.lifetime.end.p0(i64 40, ptr %6) #27
  br label %23

23:                                               ; preds = %22
  %24 = load i32, ptr %5, align 4, !tbaa !35
  %25 = add nsw i32 %24, 1
  store i32 %25, ptr %5, align 4, !tbaa !35
  br label %10, !llvm.loop !836

26:                                               ; preds = %14
  %27 = landingpad { ptr, i32 }
          cleanup
  %28 = extractvalue { ptr, i32 } %27, 0
  store ptr %28, ptr %7, align 8
  %29 = extractvalue { ptr, i32 } %27, 1
  store i32 %29, ptr %8, align 4
  call void @_ZN4Json5ValueD1Ev(ptr noundef nonnull align 8 dereferenceable(40) %6) #27
  call void @llvm.lifetime.end.p0(i64 40, ptr %6) #27
  call void @llvm.lifetime.end.p0(i64 4, ptr %5) #27
  br label %31

30:                                               ; preds = %13
  ret i1 true

31:                                               ; preds = %26
  %32 = load ptr, ptr %7, align 8
  %33 = load i32, ptr %8, align 4
  %34 = insertvalue { ptr, i32 } poison, ptr %32, 0
  %35 = insertvalue { ptr, i32 } %34, i32 %33, 1
  resume { ptr, i32 } %35
}